target datalayout = "e-m:e-p270:32:32-p271:32:32-p272:64:64-i64:64-i128:128-f80:128-n8:16:32:64-S128"
target triple = "x86_64-unknown-linux-gnu"

%"struct.absl::lts_20230802::container_internal::internal_compressed_tuple::Storage" = type { %"class.absl::lts_20230802::container_internal::CommonFields" }
%"class.absl::lts_20230802::container_internal::CommonFields" = type { ptr, ptr, i64, %"class.absl::lts_20230802::container_internal::CompressedTuple.0" }
%"class.absl::lts_20230802::container_internal::CompressedTuple.0" = type { %"struct.absl::lts_20230802::container_internal::internal_compressed_tuple::CompressedTupleImpl.1" }
%"struct.absl::lts_20230802::container_internal::internal_compressed_tuple::CompressedTupleImpl.1" = type { %"struct.absl::lts_20230802::container_internal::internal_compressed_tuple::Storage.2" }
%"struct.absl::lts_20230802::container_internal::internal_compressed_tuple::Storage.2" = type { i64 }
%"class.std::__cxx11::basic_string" = type { %"struct.std::__cxx11::basic_string<char>::_Alloc_hider", i64, %union.anon }
%"struct.std::__cxx11::basic_string<char>::_Alloc_hider" = type { ptr }
%union.anon = type { i64, [8 x i8] }
%"struct.google::protobuf::compiler::cpp::Options" = type <{ ptr, ptr, %"class.std::__cxx11::basic_string", %"class.std::__cxx11::basic_string", %"class.std::__cxx11::basic_string", %"class.std::__cxx11::basic_string", %"struct.google::protobuf::compiler::cpp::FieldListenerOptions", i32, i32, i8, i8, i8, i8, i8, i8, i8, i8, i8, i8, i8, i8, i8, i8, [2 x i8] }>
%"struct.google::protobuf::compiler::cpp::FieldListenerOptions" = type { i8, %"class.absl::lts_20230802::flat_hash_set" }
%"class.absl::lts_20230802::flat_hash_set" = type { %"class.absl::lts_20230802::container_internal::raw_hash_set" }
%"class.absl::lts_20230802::container_internal::raw_hash_set" = type { %"class.absl::lts_20230802::container_internal::CompressedTuple" }
%"class.absl::lts_20230802::container_internal::CompressedTuple" = type { %"struct.absl::lts_20230802::container_internal::internal_compressed_tuple::CompressedTupleImpl" }
%"struct.absl::lts_20230802::container_internal::internal_compressed_tuple::CompressedTupleImpl" = type { %"struct.absl::lts_20230802::container_internal::internal_compressed_tuple::Storage" }

; Function Attrs: mustprogress nounwind uwtable
define hidden noundef zeroext i1 @_ZN6google8protobuf8compiler3cpp15IsProfileDrivenERKNS2_7OptionsE(ptr noundef nonnull align 8 dereferenceable(206) %options) #5 {
entry:
  %options.addr = alloca ptr, align 8
  store ptr %options, ptr %options.addr, align 8
  %0 = load ptr, ptr %options.addr, align 8
  %bootstrap = getelementptr inbounds %"struct.google::protobuf::compiler::cpp::Options", ptr %0, i32 0, i32 15
  %1 = load i8, ptr %bootstrap, align 2
  %tobool = trunc i8 %1 to i1
  br i1 %tobool, label %land.end, label %land.lhs.true

land.lhs.true:                                    ; preds = %entry
  %2 = load ptr, ptr %options.addr, align 8
  %opensource_runtime = getelementptr inbounds %"struct.google::protobuf::compiler::cpp::Options", ptr %2, i32 0, i32 16
  %3 = load i8, ptr %opensource_runtime, align 1
  %tobool1 = trunc i8 %3 to i1
  br i1 %tobool1, label %land.end, label %land.rhs

land.rhs:                                         ; preds = %land.lhs.true
  %4 = load ptr, ptr %options.addr, align 8
  %access_info_map = getelementptr inbounds %"struct.google::protobuf::compiler::cpp::Options", ptr %4, i32 0, i32 0
  %5 = load ptr, ptr %access_info_map, align 8
  %cmp = icmp ne ptr %5, null
  br label %land.end

land.end:                                         ; preds = %land.rhs, %land.lhs.true, %entry
  %6 = phi i1 [ false, %land.lhs.true ], [ false, %entry ], [ %cmp, %land.rhs ]
  ret i1 %6
}

; Function Attrs: mustprogress nounwind uwtable
define hidden noundef zeroext i1 @_ZN6google8protobuf8compiler3cpp23IsStringInliningEnabledERKNS2_7OptionsE(ptr noundef nonnull align 8 dereferenceable(206) %options) #5 {
entry:
  %options.addr = alloca ptr, align 8
  store ptr %options, ptr %options.addr, align 8
  %0 = load ptr, ptr %options.addr, align 8
  %force_inline_string = getelementptr inbounds %"struct.google::protobuf::compiler::cpp::Options", ptr %0, i32 0, i32 21
  %1 = load i8, ptr %force_inline_string, align 4
  %tobool = trunc i8 %1 to i1
  br i1 %tobool, label %lor.end, label %lor.rhs

lor.rhs:                                          ; preds = %entry
  %2 = load ptr, ptr %options.addr, align 8
  %call = call noundef zeroext i1 @_ZN6google8protobuf8compiler3cpp15IsProfileDrivenERKNS2_7OptionsE(ptr noundef nonnull align 8 dereferenceable(206) %2)
  br label %lor.end

lor.end:                                          ; preds = %lor.rhs, %entry
  %3 = phi i1 [ true, %entry ], [ %call, %lor.rhs ]
  ret i1 %3
}