; Function Attrs: mustprogress nofree norecurse nosync nounwind willreturn memory(argmem: read) uwtable
define hidden noundef zeroext i1 @_ZN6google8protobuf8compiler3cpp23IsStringInliningEnabledERKNS2_7OptionsE(ptr nocapture noundef nonnull readonly align 8 dereferenceable(206) %options) local_unnamed_addr #11 {
entry:
  %force_inline_string = getelementptr inbounds i8, ptr %options, i64 204
  %0 = load i8, ptr %force_inline_string, align 4
  %1 = and i8 %0, 1
  %tobool.not = icmp eq i8 %1, 0
  br i1 %tobool.not, label %lor.rhs, label %lor.end

lor.rhs:                                          ; preds = %entry
  %bootstrap.i = getelementptr inbounds i8, ptr %options, i64 198
  %2 = load i8, ptr %bootstrap.i, align 2
  %3 = and i8 %2, 1
  %tobool.not.i = icmp eq i8 %3, 0
  br i1 %tobool.not.i, label %land.lhs.true.i, label %lor.end

land.lhs.true.i:                                  ; preds = %lor.rhs
  %opensource_runtime.i = getelementptr inbounds i8, ptr %options, i64 199
  %4 = load i8, ptr %opensource_runtime.i, align 1
  %5 = and i8 %4, 1
  %tobool1.not.i = icmp eq i8 %5, 0
  br i1 %tobool1.not.i, label %land.rhs.i, label %lor.end

land.rhs.i:                                       ; preds = %land.lhs.true.i
  %6 = load ptr, ptr %options, align 8
  %cmp.i = icmp ne ptr %6, null
  br label %lor.end

lor.end:                                          ; preds = %land.rhs.i, %land.lhs.true.i, %lor.rhs, %entry
  %7 = phi i1 [ true, %entry ], [ false, %land.lhs.true.i ], [ false, %lor.rhs ], [ %cmp.i, %land.rhs.i ]
  ret i1 %7
}